target datalayout = "e-m:e-p270:32:32-p271:32:32-p272:64:64-i64:64-i128:128-f80:128-n8:16:32:64-S128"
target triple = "x86_64-pc-linux-gnu"

%struct.Macho_Binary_t = type { ptr, i64, %struct.Macho_Header_t, ptr, ptr, ptr, ptr }
%struct.Macho_Header_t = type { i32, i32, i32, i32, i32, i32, i32, i32 }
%struct.Macho_Segment_t = type { ptr, i64, i64, i64, i64, i32, i32, i32, i32, ptr, i64, ptr }

; Function Attrs: mustprogress nounwind uwtable
define hidden void @_ZN4LIEF5MachO16destroy_segmentsEP14Macho_Binary_t(ptr noundef %0) #0 {
  %2 = alloca ptr, align 8
  %3 = alloca ptr, align 8
  %4 = alloca i64, align 8
  store ptr %0, ptr %2, align 8, !tbaa !3
  call void @llvm.lifetime.start.p0(i64 8, ptr %3) #7
  %5 = load ptr, ptr %2, align 8, !tbaa !3
  %6 = getelementptr inbounds nuw %struct.Macho_Binary_t, ptr %5, i32 0, i32 6
  %7 = load ptr, ptr %6, align 8, !tbaa !10
  store ptr %7, ptr %3, align 8, !tbaa !86
  call void @llvm.lifetime.start.p0(i64 8, ptr %4) #7
  store i64 0, ptr %4, align 8, !tbaa !22
  br label %8

8:                                                ; preds = %26, %1
  %9 = load ptr, ptr %3, align 8, !tbaa !86
  %10 = load i64, ptr %4, align 8, !tbaa !22
  %11 = getelementptr inbounds nuw ptr, ptr %9, i64 %10
  %12 = load ptr, ptr %11, align 8, !tbaa !25
  %13 = icmp ne ptr %12, null
  br i1 %13, label %15, label %14

14:                                               ; preds = %8
  call void @llvm.lifetime.end.p0(i64 8, ptr %4) #7
  br label %29

15:                                               ; preds = %8
  %16 = load ptr, ptr %3, align 8, !tbaa !86
  %17 = load i64, ptr %4, align 8, !tbaa !22
  %18 = getelementptr inbounds nuw ptr, ptr %16, i64 %17
  %19 = load ptr, ptr %18, align 8, !tbaa !25
  %20 = getelementptr inbounds nuw %struct.Macho_Segment_t, ptr %19, i32 0, i32 9
  %21 = load ptr, ptr %20, align 8, !tbaa !39
  call void @free(ptr noundef %21) #7
  %22 = load ptr, ptr %3, align 8, !tbaa !86
  %23 = load i64, ptr %4, align 8, !tbaa !22
  %24 = getelementptr inbounds nuw ptr, ptr %22, i64 %23
  %25 = load ptr, ptr %24, align 8, !tbaa !25
  call void @free(ptr noundef %25) #7
  br label %26

26:                                               ; preds = %15
  %27 = load i64, ptr %4, align 8, !tbaa !22
  %28 = add i64 %27, 1
  store i64 %28, ptr %4, align 8, !tbaa !22
  br label %8, !llvm.loop !87

29:                                               ; preds = %14
  %30 = load ptr, ptr %2, align 8, !tbaa !3
  %31 = getelementptr inbounds nuw %struct.Macho_Binary_t, ptr %30, i32 0, i32 6
  %32 = load ptr, ptr %31, align 8, !tbaa !10
  call void @free(ptr noundef %32) #7
  call void @llvm.lifetime.end.p0(i64 8, ptr %3) #7
  ret void
}